; ModuleID = '7/1148.c'
source_filename = "7/1148.c"
target datalayout = "e-m:e-p270:32:32-p271:32:32-p272:64:64-i64:64-f80:128-n8:16:32:64-S128"
target triple = "x86_64-pc-linux-gnu"

@.str = private unnamed_addr constant [3 x i8] c"%s\00", align 1

; Function Attrs: noinline nounwind uwtable
define dso_local i32 @main() #0 {
  %1 = alloca i32, align 4
  %2 = alloca [256 x i8], align 16
  %3 = alloca [256 x i8], align 16
  %4 = alloca [256 x i8], align 16
  %5 = alloca i8*, align 8
  %6 = alloca i8, align 1
  %7 = alloca i32, align 4
  %8 = alloca i32, align 4
  %9 = alloca i32, align 4
  %10 = alloca i32, align 4
  store i32 0, i32* %1, align 4
  %11 = getelementptr inbounds [256 x i8], [256 x i8]* %2, i64 0, i64 0
  %12 = call i32 (i8*, ...) bitcast (i32 (...)* @gets to i32 (i8*, ...)*)(i8* %11)
  %13 = getelementptr inbounds [256 x i8], [256 x i8]* %3, i64 0, i64 0
  %14 = call i32 (i8*, ...) bitcast (i32 (...)* @gets to i32 (i8*, ...)*)(i8* %13)
  %15 = getelementptr inbounds [256 x i8], [256 x i8]* %4, i64 0, i64 0
  %16 = call i32 (i8*, ...) bitcast (i32 (...)* @gets to i32 (i8*, ...)*)(i8* %15)
  %17 = getelementptr inbounds [256 x i8], [256 x i8]* %2, i64 0, i64 0
  %18 = getelementptr inbounds [256 x i8], [256 x i8]* %3, i64 0, i64 0
  %19 = call i8* @strstr(i8* %17, i8* %18) #3
  store i8* %19, i8** %5, align 8
  %20 = load i8*, i8** %5, align 8
  %21 = icmp eq i8* %20, null
  br i1 %21, label %22, label %25

22:                                               ; preds = %0
  %23 = getelementptr inbounds [256 x i8], [256 x i8]* %2, i64 0, i64 0
  %24 = call i32 (i8*, ...) @printf(i8* getelementptr inbounds ([3 x i8], [3 x i8]* @.str, i64 0, i64 0), i8* %23)
  store i32 0, i32* %1, align 4
  br label %74

25:                                               ; preds = %0
  %26 = load i8*, i8** %5, align 8
  %27 = getelementptr inbounds [256 x i8], [256 x i8]* %2, i64 0, i64 0
  %28 = ptrtoint i8* %26 to i64
  %29 = ptrtoint i8* %27 to i64
  %30 = sub i64 %28, %29
  %31 = trunc i64 %30 to i8
  store i8 %31, i8* %6, align 1
  %32 = getelementptr inbounds [256 x i8], [256 x i8]* %2, i64 0, i64 0
  %33 = call i64 @strlen(i8* %32) #3
  %34 = trunc i64 %33 to i32
  store i32 %34, i32* %7, align 4
  %35 = getelementptr inbounds [256 x i8], [256 x i8]* %4, i64 0, i64 0
  %36 = call i64 @strlen(i8* %35) #3
  %37 = trunc i64 %36 to i32
  store i32 %37, i32* %8, align 4
  %38 = load i8, i8* %6, align 1
  %39 = sext i8 %38 to i32
  store i32 %39, i32* %9, align 4
  store i32 0, i32* %10, align 4
  br label %40

40:                                               ; preds = %67, %25
  %41 = load i32, i32* %10, align 4
  %42 = load i32, i32* %8, align 4
  %43 = icmp slt i32 %41, %42
  br i1 %43, label %44, label %70

44:                                               ; preds = %40
  %45 = load i32, i32* %10, align 4
  %46 = sext i32 %45 to i64
  %47 = getelementptr inbounds [256 x i8], [256 x i8]* %4, i64 0, i64 %46
  %48 = load i8, i8* %47, align 1
  %49 = load i32, i32* %9, align 4
  %50 = sext i32 %49 to i64
  %51 = getelementptr inbounds [256 x i8], [256 x i8]* %2, i64 0, i64 %50
  store i8 %48, i8* %51, align 1
  %52 = load i32, i32* %9, align 4
  %53 = add nsw i32 %52, 1
  store i32 %53, i32* %9, align 4
  %54 = load i32, i32* %9, align 4
  %55 = sext i32 %54 to i64
  %56 = load i8*, i8** %5, align 8
  %57 = getelementptr inbounds [256 x i8], [256 x i8]* %2, i64 0, i64 0
  %58 = ptrtoint i8* %56 to i64
  %59 = ptrtoint i8* %57 to i64
  %60 = sub i64 %58, %59
  %61 = load i32, i32* %8, align 4
  %62 = sext i32 %61 to i64
  %63 = add nsw i64 %60, %62
  %64 = icmp eq i64 %55, %63
  br i1 %64, label %65, label %66

65:                                               ; preds = %44
  br label %70

66:                                               ; preds = %44
  br label %67

67:                                               ; preds = %66
  %68 = load i32, i32* %10, align 4
  %69 = add nsw i32 %68, 1
  store i32 %69, i32* %10, align 4
  br label %40

70:                                               ; preds = %65, %40
  br label %71

71:                                               ; preds = %70
  %72 = getelementptr inbounds [256 x i8], [256 x i8]* %2, i64 0, i64 0
  %73 = call i32 (i8*, ...) @printf(i8* getelementptr inbounds ([3 x i8], [3 x i8]* @.str, i64 0, i64 0), i8* %72)
  br label %74

74:                                               ; preds = %71, %22
  %75 = load i32, i32* %1, align 4
  ret i32 %75
}

declare dso_local i32 @gets(...) #1

; Function Attrs: nounwind readonly
declare dso_local i8* @strstr(i8*, i8*) #2

declare dso_local i32 @printf(i8*, ...) #1

; Function Attrs: nounwind readonly
declare dso_local i64 @strlen(i8*) #2


!llvm.module.flags = !{!0}
!llvm.ident = !{!1}

!0 = !{i32 1, !"wchar_size", i32 4}
!1 = !{!"clang version 10.0.0-4ubuntu1 "}
