; ModuleID = 'source-C-CXX/6/1148.c'
source_filename = "source-C-CXX/6/1148.c"
target datalayout = "e-m:e-p270:32:32-p271:32:32-p272:64:64-i64:64-f80:128-n8:16:32:64-S128"
target triple = "x86_64-pc-linux-gnu"

@.str = private unnamed_addr constant [3 x i8] c"%s\00", align 1

; Function Attrs: nounwind sspstrong uwtable
define dso_local i32 @main() local_unnamed_addr #0 {
  %1 = alloca [256 x i8], align 16
  %2 = alloca [256 x i8], align 16
  %3 = alloca [256 x i8], align 16
  %4 = getelementptr inbounds [256 x i8], [256 x i8]* %1, i64 0, i64 0
  call void @llvm.lifetime.start.p0i8(i64 256, i8* nonnull %4) #5
  %5 = getelementptr inbounds [256 x i8], [256 x i8]* %2, i64 0, i64 0
  call void @llvm.lifetime.start.p0i8(i64 256, i8* nonnull %5) #5
  %6 = getelementptr inbounds [256 x i8], [256 x i8]* %3, i64 0, i64 0
  call void @llvm.lifetime.start.p0i8(i64 256, i8* nonnull %6) #5
  %7 = call i32 (i8*, ...) bitcast (i32 (...)* @gets to i32 (i8*, ...)*)(i8* nonnull %4) #5
  %8 = call i32 (i8*, ...) bitcast (i32 (...)* @gets to i32 (i8*, ...)*)(i8* nonnull %5) #5
  %9 = call i32 (i8*, ...) bitcast (i32 (...)* @gets to i32 (i8*, ...)*)(i8* nonnull %6) #5
  %10 = call i8* @strstr(i8* noundef nonnull %4, i8* noundef nonnull %5) #6
  %11 = icmp eq i8* %10, null
  br i1 %11, label %39, label %12

12:                                               ; preds = %0
  %13 = ptrtoint i8* %10 to i64
  %14 = ptrtoint [256 x i8]* %1 to i64
  %15 = sub i64 %13, %14
  %16 = call i64 @strlen(i8* noundef nonnull %6) #6
  %17 = trunc i64 %16 to i32
  %18 = shl i64 %16, 32
  %19 = ashr exact i64 %18, 32
  %20 = add nsw i64 %19, %15
  %21 = icmp sgt i32 %17, 0
  br i1 %21, label %22, label %39

22:                                               ; preds = %12
  %23 = shl i64 %16, 32
  %24 = ashr exact i64 %23, 32
  %25 = sub i64 %13, %14
  %26 = shl i64 %25, 56
  %27 = ashr exact i64 %26, 56
  br label %28

28:                                               ; preds = %28, %22
  %29 = phi i64 [ %34, %28 ], [ %27, %22 ]
  %30 = phi i64 [ %36, %28 ], [ 0, %22 ]
  %31 = getelementptr inbounds [256 x i8], [256 x i8]* %3, i64 0, i64 %30
  %32 = load i8, i8* %31, align 1, !tbaa !5
  %33 = getelementptr inbounds [256 x i8], [256 x i8]* %1, i64 0, i64 %29
  store i8 %32, i8* %33, align 1, !tbaa !5
  %34 = add nsw i64 %29, 1
  %35 = icmp ne i64 %20, %34
  %36 = add nuw nsw i64 %30, 1
  %37 = icmp slt i64 %36, %24
  %38 = select i1 %35, i1 %37, i1 false
  br i1 %38, label %28, label %39, !llvm.loop !8

39:                                               ; preds = %28, %12, %0
  %40 = call i32 (i8*, ...) @printf(i8* nonnull dereferenceable(1) getelementptr inbounds ([3 x i8], [3 x i8]* @.str, i64 0, i64 0), i8* nonnull %4)
  call void @llvm.lifetime.end.p0i8(i64 256, i8* nonnull %6) #5
  call void @llvm.lifetime.end.p0i8(i64 256, i8* nonnull %5) #5
  call void @llvm.lifetime.end.p0i8(i64 256, i8* nonnull %4) #5
  ret i32 0
}

; Function Attrs: argmemonly mustprogress nofree nosync nounwind willreturn
declare void @llvm.lifetime.start.p0i8(i64 immarg, i8* nocapture) #1

declare i32 @gets(...) local_unnamed_addr #2

; Function Attrs: argmemonly mustprogress nofree nounwind readonly willreturn
declare i8* @strstr(i8*, i8* nocapture) local_unnamed_addr #3

; Function Attrs: nofree nounwind
declare noundef i32 @printf(i8* nocapture noundef readonly, ...) local_unnamed_addr #4

; Function Attrs: argmemonly mustprogress nofree nounwind readonly willreturn
declare i64 @strlen(i8* nocapture) local_unnamed_addr #3

; Function Attrs: argmemonly mustprogress nofree nosync nounwind willreturn
declare void @llvm.lifetime.end.p0i8(i64 immarg, i8* nocapture) #1


!llvm.module.flags = !{!0, !1, !2, !3}
!llvm.ident = !{!4}

!0 = !{i32 1, !"wchar_size", i32 4}
!1 = !{i32 7, !"PIC Level", i32 2}
!2 = !{i32 7, !"PIE Level", i32 2}
!3 = !{i32 7, !"uwtable", i32 1}
!4 = !{!"clang version 13.0.0"}
!5 = !{!6, !6, i64 0}
!6 = !{!"omnipotent char", !7, i64 0}
!7 = !{!"Simple C/C++ TBAA"}
!8 = distinct !{!8, !9}
!9 = !{!"llvm.loop.mustprogress"}
